target datalayout = "e-m:e-p270:32:32-p271:32:32-p272:64:64-i64:64-i128:128-f80:128-n8:16:32:64-S128"
target triple = "x86_64-pc-linux-gnu"

%class.dtNodePool = type <{ ptr, ptr, ptr, i32, i32, i32, [4 x i8] }>
%struct.dtNode = type { [3 x float], float, float, i32, i32 }

; Function Attrs: mustprogress nounwind uwtable
define linkonce_odr noundef i32 @_Z9dtHashRefj(i32 noundef %0) #2 comdat {
  %2 = alloca i32, align 4
  store i32 %0, ptr %2, align 4
  %3 = load i32, ptr %2, align 4
  %4 = shl i32 %3, 15
  %5 = xor i32 %4, -1
  %6 = load i32, ptr %2, align 4
  %7 = add i32 %6, %5
  store i32 %7, ptr %2, align 4
  %8 = load i32, ptr %2, align 4
  %9 = lshr i32 %8, 10
  %10 = load i32, ptr %2, align 4
  %11 = xor i32 %10, %9
  store i32 %11, ptr %2, align 4
  %12 = load i32, ptr %2, align 4
  %13 = shl i32 %12, 3
  %14 = load i32, ptr %2, align 4
  %15 = add i32 %14, %13
  store i32 %15, ptr %2, align 4
  %16 = load i32, ptr %2, align 4
  %17 = lshr i32 %16, 6
  %18 = load i32, ptr %2, align 4
  %19 = xor i32 %18, %17
  store i32 %19, ptr %2, align 4
  %20 = load i32, ptr %2, align 4
  %21 = shl i32 %20, 11
  %22 = xor i32 %21, -1
  %23 = load i32, ptr %2, align 4
  %24 = add i32 %23, %22
  store i32 %24, ptr %2, align 4
  %25 = load i32, ptr %2, align 4
  %26 = lshr i32 %25, 16
  %27 = load i32, ptr %2, align 4
  %28 = xor i32 %27, %26
  store i32 %28, ptr %2, align 4
  %29 = load i32, ptr %2, align 4
  ret i32 %29
}

; Function Attrs: mustprogress uwtable
define noundef ptr @_ZN10dtNodePool8findNodeEjh(ptr noundef nonnull align 8 dereferenceable(36) %0, i32 noundef %1, i8 noundef zeroext %2) #0 align 2 {
  %4 = alloca ptr, align 8
  %5 = alloca ptr, align 8
  %6 = alloca i32, align 4
  %7 = alloca i8, align 1
  %8 = alloca i32, align 4
  %9 = alloca i16, align 2
  store ptr %0, ptr %5, align 8
  store i32 %1, ptr %6, align 4
  store i8 %2, ptr %7, align 1
  %10 = load ptr, ptr %5, align 8
  %11 = load i32, ptr %6, align 4
  %12 = call noundef i32 @_Z9dtHashRefj(i32 noundef %11)
  %13 = getelementptr inbounds %class.dtNodePool, ptr %10, i32 0, i32 4
  %14 = load i32, ptr %13, align 4
  %15 = sub nsw i32 %14, 1
  %16 = and i32 %12, %15
  store i32 %16, ptr %8, align 4
  %17 = getelementptr inbounds %class.dtNodePool, ptr %10, i32 0, i32 1
  %18 = load ptr, ptr %17, align 8
  %19 = load i32, ptr %8, align 4
  %20 = zext i32 %19 to i64
  %21 = getelementptr inbounds i16, ptr %18, i64 %20
  %22 = load i16, ptr %21, align 2
  store i16 %22, ptr %9, align 2
  br label %23

23:                                               ; preds = %56, %3
  %24 = load i16, ptr %9, align 2
  %25 = zext i16 %24 to i32
  %26 = icmp ne i32 %25, 65535
  br i1 %26, label %27, label %63

27:                                               ; preds = %23
  %28 = getelementptr inbounds %class.dtNodePool, ptr %10, i32 0, i32 0
  %29 = load ptr, ptr %28, align 8
  %30 = load i16, ptr %9, align 2
  %31 = zext i16 %30 to i64
  %32 = getelementptr inbounds %struct.dtNode, ptr %29, i64 %31
  %33 = getelementptr inbounds %struct.dtNode, ptr %32, i32 0, i32 4
  %34 = load i32, ptr %33, align 4
  %35 = load i32, ptr %6, align 4
  %36 = icmp eq i32 %34, %35
  br i1 %36, label %37, label %56

37:                                               ; preds = %27
  %38 = getelementptr inbounds %class.dtNodePool, ptr %10, i32 0, i32 0
  %39 = load ptr, ptr %38, align 8
  %40 = load i16, ptr %9, align 2
  %41 = zext i16 %40 to i64
  %42 = getelementptr inbounds %struct.dtNode, ptr %39, i64 %41
  %43 = getelementptr inbounds %struct.dtNode, ptr %42, i32 0, i32 3
  %44 = load i32, ptr %43, align 4
  %45 = lshr i32 %44, 24
  %46 = and i32 %45, 3
  %47 = load i8, ptr %7, align 1
  %48 = zext i8 %47 to i32
  %49 = icmp eq i32 %46, %48
  br i1 %49, label %50, label %56

50:                                               ; preds = %37
  %51 = getelementptr inbounds %class.dtNodePool, ptr %10, i32 0, i32 0
  %52 = load ptr, ptr %51, align 8
  %53 = load i16, ptr %9, align 2
  %54 = zext i16 %53 to i64
  %55 = getelementptr inbounds %struct.dtNode, ptr %52, i64 %54
  store ptr %55, ptr %4, align 8
  br label %64

56:                                               ; preds = %37, %27
  %57 = getelementptr inbounds %class.dtNodePool, ptr %10, i32 0, i32 2
  %58 = load ptr, ptr %57, align 8
  %59 = load i16, ptr %9, align 2
  %60 = zext i16 %59 to i64
  %61 = getelementptr inbounds i16, ptr %58, i64 %60
  %62 = load i16, ptr %61, align 2
  store i16 %62, ptr %9, align 2
  br label %23, !llvm.loop !6

63:                                               ; preds = %23
  store ptr null, ptr %4, align 8
  br label %64

64:                                               ; preds = %63, %50
  %65 = load ptr, ptr %4, align 8
  ret ptr %65
}