; Function Attrs: mustprogress nofree norecurse nosync nounwind willreturn memory(read, inaccessiblemem: none) uwtable
define noundef ptr @_ZN10dtNodePool8findNodeEjh(ptr noundef nonnull readonly align 8 captures(none) dereferenceable(36) %0, i32 noundef %1, i8 noundef zeroext %2) local_unnamed_addr #8 align 2 {
  %4 = shl i32 %1, 15
  %5 = xor i32 %4, -1
  %6 = add i32 %1, %5
  %7 = lshr i32 %6, 10
  %8 = xor i32 %7, %6
  %9 = mul i32 %8, 9
  %10 = lshr i32 %9, 6
  %11 = xor i32 %10, %9
  %12 = shl i32 %11, 11
  %13 = xor i32 %12, -1
  %14 = add i32 %11, %13
  %15 = lshr i32 %14, 16
  %16 = xor i32 %15, %14
  %17 = getelementptr inbounds nuw i8, ptr %0, i64 28
  %18 = load i32, ptr %17, align 4
  %19 = add nsw i32 %18, -1
  %20 = and i32 %19, %16
  %21 = getelementptr inbounds nuw i8, ptr %0, i64 8
  %22 = load ptr, ptr %21, align 8
  %23 = zext i32 %20 to i64
  %24 = getelementptr inbounds nuw i16, ptr %22, i64 %23
  %.011 = load i16, ptr %24, align 2
  %.not12 = icmp eq i16 %.011, -1
  br i1 %.not12, label %._crit_edge, label %.lr.ph

.lr.ph:                                           ; preds = %3
  %25 = load ptr, ptr %0, align 8
  %26 = zext i8 %2 to i32
  %27 = getelementptr inbounds nuw i8, ptr %0, i64 16
  %28 = load ptr, ptr %27, align 8
  br label %29

29:                                               ; preds = %.lr.ph, %41
  %.013 = phi i16 [ %.011, %.lr.ph ], [ %.0, %41 ]
  %30 = zext i16 %.013 to i64
  %31 = getelementptr inbounds nuw %struct.dtNode, ptr %25, i64 %30
  %32 = getelementptr inbounds nuw i8, ptr %31, i64 24
  %33 = load i32, ptr %32, align 4
  %34 = icmp eq i32 %33, %1
  br i1 %34, label %35, label %41

35:                                               ; preds = %29
  %36 = getelementptr inbounds nuw i8, ptr %31, i64 20
  %37 = load i32, ptr %36, align 4
  %38 = lshr i32 %37, 24
  %39 = and i32 %38, 3
  %40 = icmp eq i32 %39, %26
  br i1 %40, label %._crit_edge, label %41

41:                                               ; preds = %35, %29
  %42 = getelementptr inbounds nuw i16, ptr %28, i64 %30
  %.0 = load i16, ptr %42, align 2
  %.not = icmp eq i16 %.0, -1
  br i1 %.not, label %._crit_edge, label %29, !llvm.loop !6

._crit_edge:                                      ; preds = %35, %41, %3
  %.010 = phi ptr [ null, %3 ], [ null, %41 ], [ %31, %35 ]
  ret ptr %.010
}